; Function Attrs: nounwind uwtable
define float @Gia_ManLevelAve(ptr noundef readonly captures(none) %0) local_unnamed_addr #2 {
  %2 = getelementptr i8, ptr %0, i64 32
  %3 = getelementptr inbounds nuw i8, ptr %0, i64 72
  %4 = load ptr, ptr %3, align 8
  %5 = getelementptr i8, ptr %4, i64 4
  %.val16 = load i32, ptr %5, align 4
  %6 = icmp sgt i32 %.val16, 0
  br i1 %6, label %.lr.ph, label %.critedge

.lr.ph:                                           ; preds = %1
  %7 = getelementptr i8, ptr %0, i64 160
  %.val1125 = load ptr, ptr %2, align 8
  %.not26 = icmp eq ptr %.val1125, null
  br i1 %.not26, label %.critedge, label %.lr.ph29

8:                                                ; preds = %.lr.ph29
  %.val11 = load ptr, ptr %2, align 8
  %.not = icmp eq ptr %.val11, null
  br i1 %.not, label %.critedge.loopexit.loopexit, label %.lr.ph29, !llvm.loop !24

.lr.ph29:                                         ; preds = %.lr.ph, %8
  %.01828 = phi i32 [ %19, %8 ], [ 0, %.lr.ph ]
  %9 = phi ptr [ %20, %8 ], [ %4, %.lr.ph ]
  %indvars.iv27 = phi i64 [ %indvars.iv.next, %8 ], [ 0, %.lr.ph ]
  %10 = getelementptr i8, ptr %9, i64 8
  %.val12.val = load ptr, ptr %10, align 8
  %11 = getelementptr inbounds nuw i32, ptr %.val12.val, i64 %indvars.iv27
  %12 = load i32, ptr %11, align 4
  %13 = zext i32 %12 to i64
  %.val14 = load ptr, ptr %7, align 8
  %14 = add nsw i32 %12, 1
  tail call fastcc void @Vec_IntFillExtra(ptr noundef %.val14, i32 noundef %14)
  %15 = getelementptr i8, ptr %.val14, i64 8
  %.val.i.i.i = load ptr, ptr %15, align 8
  %sext.i = shl nuw i64 %13, 32
  %16 = ashr exact i64 %sext.i, 30
  %17 = getelementptr inbounds i8, ptr %.val.i.i.i, i64 %16
  %18 = load i32, ptr %17, align 4
  %19 = add nsw i32 %18, %.01828
  %indvars.iv.next = add nuw nsw i64 %indvars.iv27, 1
  %20 = load ptr, ptr %3, align 8
  %21 = getelementptr i8, ptr %20, i64 4
  %.val = load i32, ptr %21, align 4
  %22 = sext i32 %.val to i64
  %23 = icmp slt i64 %indvars.iv.next, %22
  br i1 %23, label %8, label %.critedge.loopexit.loopexit, !llvm.loop !24

.critedge.loopexit.loopexit:                      ; preds = %.lr.ph29, %8
  %24 = sitofp i32 %19 to float
  br label %.critedge

.critedge:                                        ; preds = %.lr.ph, %.critedge.loopexit.loopexit, %1
  %.0.lcssa = phi float [ 0.000000e+00, %1 ], [ 0.000000e+00, %.lr.ph ], [ %24, %.critedge.loopexit.loopexit ]
  %.val.lcssa = phi i32 [ %.val16, %1 ], [ %.val16, %.lr.ph ], [ %.val, %.critedge.loopexit.loopexit ]
  %25 = sitofp i32 %.val.lcssa to float
  %26 = fdiv float %.0.lcssa, %25
  ret float %26
}